target datalayout = "e-m:e-p270:32:32-p271:32:32-p272:64:64-i64:64-i128:128-f80:128-n8:16:32:64-S128"
target triple = "x86_64-unknown-linux-gnu"

%"class.cvc5::internal::NodeTemplate" = type { ptr }
%"class.std::unique_ptr.71" = type { %"struct.std::__uniq_ptr_data.72" }
%"struct.std::__uniq_ptr_data.72" = type { %"class.std::__uniq_ptr_impl.73" }
%"class.std::__uniq_ptr_impl.73" = type { %"class.std::tuple.74" }
%"class.std::tuple.74" = type { %"struct.std::_Tuple_impl.75" }
%"struct.std::_Tuple_impl.75" = type { %"struct.std::_Head_base.78" }
%"struct.std::_Head_base.78" = type { ptr }
%"class.cvc5::internal::TheoryEngine" = type { %"class.cvc5::internal::EnvObj", ptr, [14 x ptr], %"class.std::shared_ptr", %"class.std::shared_ptr.0", %"class.std::unique_ptr", ptr, ptr, %"class.std::unique_ptr.5", %"class.std::unique_ptr.13", [14 x ptr], %"class.cvc5::context::CDO", %"class.cvc5::context::CDO", %"class.cvc5::context::CDO.21", %"class.cvc5::context::CDO.23", %"class.cvc5::context::CDO", %"class.cvc5::context::CDO.21", %"class.cvc5::context::CDO.23", %"class.cvc5::context::CDHashMap", %"class.cvc5::context::CDO.30", %"class.cvc5::context::CDList", %"class.cvc5::context::CDO.34", i8, i8, %"class.cvc5::internal::AtomRequests", %"class.std::unique_ptr.63", %"class.cvc5::internal::theory::TheoryEngineStatistics", %"class.cvc5::internal::NodeTemplate", %"class.cvc5::internal::NodeTemplate", i8, %"class.std::queue", i8, [7 x i8], %"class.cvc5::context::CDO", %"class.std::unique_ptr.71", %"class.std::vector.79" }
%"class.cvc5::internal::EnvObj" = type { ptr, ptr }
%"class.std::shared_ptr" = type { %"class.std::__shared_ptr" }
%"class.std::__shared_ptr" = type { ptr, %"class.std::__shared_count" }
%"class.std::__shared_count" = type { ptr }
%"class.std::shared_ptr.0" = type { %"class.std::__shared_ptr.1" }
%"class.std::__shared_ptr.1" = type { ptr, %"class.std::__shared_count" }
%"class.std::unique_ptr" = type { %"struct.std::__uniq_ptr_data" }
%"struct.std::__uniq_ptr_data" = type { %"class.std::__uniq_ptr_impl" }
%"class.std::__uniq_ptr_impl" = type { %"class.std::tuple" }
%"class.std::tuple" = type { %"struct.std::_Tuple_impl" }
%"struct.std::_Tuple_impl" = type { %"struct.std::_Head_base.4" }
%"struct.std::_Head_base.4" = type { ptr }
%"class.std::unique_ptr.5" = type { %"struct.std::__uniq_ptr_data.6" }
%"struct.std::__uniq_ptr_data.6" = type { %"class.std::__uniq_ptr_impl.7" }
%"class.std::__uniq_ptr_impl.7" = type { %"class.std::tuple.8" }
%"class.std::tuple.8" = type { %"struct.std::_Tuple_impl.9" }
%"struct.std::_Tuple_impl.9" = type { %"struct.std::_Head_base.12" }
%"struct.std::_Head_base.12" = type { ptr }
%"class.std::unique_ptr.13" = type { %"struct.std::__uniq_ptr_data.14" }
%"struct.std::__uniq_ptr_data.14" = type { %"class.std::__uniq_ptr_impl.15" }
%"class.std::__uniq_ptr_impl.15" = type { %"class.std::tuple.16" }
%"class.std::tuple.16" = type { %"struct.std::_Tuple_impl.17" }
%"struct.std::_Tuple_impl.17" = type { %"struct.std::_Head_base.20" }
%"struct.std::_Head_base.20" = type { ptr }
%"class.cvc5::context::CDO.21" = type <{ %"class.cvc5::context::ContextObj", i32, [4 x i8] }>
%"class.cvc5::context::ContextObj" = type { ptr, ptr, ptr, ptr, ptr }
%"class.cvc5::context::CDO.23" = type <{ %"class.cvc5::context::ContextObj", i32, [4 x i8] }>
%"class.cvc5::context::CDHashMap" = type { %"class.cvc5::context::ContextObj", %"class.std::unordered_map", ptr, ptr }
%"class.std::unordered_map" = type { %"class.std::_Hashtable" }
%"class.std::_Hashtable" = type { %"struct.std::__detail::_Hashtable_base", ptr, i64, %"struct.std::__detail::_Hash_node_base", i64, %"struct.std::__detail::_Prime_rehash_policy", ptr }
%"struct.std::__detail::_Hashtable_base" = type { %"struct.std::__detail::_Hash_code_base" }
%"struct.std::__detail::_Hash_code_base" = type { %"struct.std::__detail::_Hashtable_ebo_helper" }
%"struct.std::__detail::_Hashtable_ebo_helper" = type { %"struct.cvc5::internal::NodeTheoryPairHashFunction" }
%"struct.cvc5::internal::NodeTheoryPairHashFunction" = type { %"struct.std::hash" }
%"struct.std::hash" = type { i8 }
%"struct.std::__detail::_Hash_node_base" = type { ptr }
%"struct.std::__detail::_Prime_rehash_policy" = type { float, i64 }
%"class.cvc5::context::CDO.30" = type { %"class.cvc5::context::ContextObj", i64 }
%"class.cvc5::context::CDList" = type <{ %"class.cvc5::context::ContextObj", %"class.std::vector", i64, i8, %"class.cvc5::context::DefaultCleanUp", [6 x i8] }>
%"class.std::vector" = type { %"struct.std::_Vector_base" }
%"struct.std::_Vector_base" = type { %"struct.std::_Vector_base<cvc5::internal::NodeTemplate<false>, std::allocator<cvc5::internal::NodeTemplate<false>>>::_Vector_impl" }
%"struct.std::_Vector_base<cvc5::internal::NodeTemplate<false>, std::allocator<cvc5::internal::NodeTemplate<false>>>::_Vector_impl" = type { %"struct.std::_Vector_base<cvc5::internal::NodeTemplate<false>, std::allocator<cvc5::internal::NodeTemplate<false>>>::_Vector_impl_data" }
%"struct.std::_Vector_base<cvc5::internal::NodeTemplate<false>, std::allocator<cvc5::internal::NodeTemplate<false>>>::_Vector_impl_data" = type { ptr, ptr, ptr }
%"class.cvc5::context::DefaultCleanUp" = type { i8 }
%"class.cvc5::context::CDO.34" = type <{ %"class.cvc5::context::ContextObj", i32, [4 x i8] }>
%"class.cvc5::internal::AtomRequests" = type { %"class.cvc5::context::CDHashSet", %"class.cvc5::context::CDList.36", %"class.cvc5::context::CDHashMap.44" }
%"class.cvc5::context::CDHashSet" = type { %"class.cvc5::context::CDInsertHashMap" }
%"class.cvc5::context::CDInsertHashMap" = type { %"class.cvc5::context::ContextObj", ptr, i64 }
%"class.cvc5::context::CDList.36" = type <{ %"class.cvc5::context::ContextObj", %"class.std::vector.37", i64, i8, %"class.cvc5::context::DefaultCleanUp.42", [6 x i8] }>
%"class.std::vector.37" = type { %"struct.std::_Vector_base.38" }
%"struct.std::_Vector_base.38" = type { %"struct.std::_Vector_base<cvc5::internal::AtomRequests::Element, std::allocator<cvc5::internal::AtomRequests::Element>>::_Vector_impl" }
%"struct.std::_Vector_base<cvc5::internal::AtomRequests::Element, std::allocator<cvc5::internal::AtomRequests::Element>>::_Vector_impl" = type { %"struct.std::_Vector_base<cvc5::internal::AtomRequests::Element, std::allocator<cvc5::internal::AtomRequests::Element>>::_Vector_impl_data" }
%"struct.std::_Vector_base<cvc5::internal::AtomRequests::Element, std::allocator<cvc5::internal::AtomRequests::Element>>::_Vector_impl_data" = type { ptr, ptr, ptr }
%"class.cvc5::context::DefaultCleanUp.42" = type { i8 }
%"class.cvc5::context::CDHashMap.44" = type { %"class.cvc5::context::ContextObj", %"class.std::unordered_map.45", ptr, ptr }
%"class.std::unordered_map.45" = type { %"class.std::_Hashtable.46" }
%"class.std::_Hashtable.46" = type { ptr, i64, %"struct.std::__detail::_Hash_node_base", i64, %"struct.std::__detail::_Prime_rehash_policy", ptr }
%"class.std::unique_ptr.63" = type { %"struct.std::__uniq_ptr_data.64" }
%"struct.std::__uniq_ptr_data.64" = type { %"class.std::__uniq_ptr_impl.65" }
%"class.std::__uniq_ptr_impl.65" = type { %"class.std::tuple.66" }
%"class.std::tuple.66" = type { %"struct.std::_Tuple_impl.67" }
%"struct.std::_Tuple_impl.67" = type { %"struct.std::_Head_base.70" }
%"struct.std::_Head_base.70" = type { ptr }
%"class.cvc5::internal::theory::TheoryEngineStatistics" = type { %"class.cvc5::internal::TimerStat", %"class.cvc5::internal::IntStat", %"class.cvc5::internal::IntStat", %"class.cvc5::internal::IntStat", %"class.cvc5::internal::IntStat" }
%"class.cvc5::internal::TimerStat" = type { ptr }
%"class.cvc5::internal::IntStat" = type { %"class.cvc5::internal::ValueStat" }
%"class.cvc5::internal::ValueStat" = type { ptr }
%"class.std::queue" = type { %"class.std::deque" }
%"class.std::deque" = type { %"class.std::_Deque_base" }
%"class.std::_Deque_base" = type { %"struct.std::_Deque_base<cvc5::internal::NodeTemplate<false>, std::allocator<cvc5::internal::NodeTemplate<false>>>::_Deque_impl" }
%"struct.std::_Deque_base<cvc5::internal::NodeTemplate<false>, std::allocator<cvc5::internal::NodeTemplate<false>>>::_Deque_impl" = type { %"struct.std::_Deque_base<cvc5::internal::NodeTemplate<false>, std::allocator<cvc5::internal::NodeTemplate<false>>>::_Deque_impl_data" }
%"struct.std::_Deque_base<cvc5::internal::NodeTemplate<false>, std::allocator<cvc5::internal::NodeTemplate<false>>>::_Deque_impl_data" = type { ptr, i64, %"struct.std::_Deque_iterator", %"struct.std::_Deque_iterator" }
%"struct.std::_Deque_iterator" = type { ptr, ptr, ptr, ptr }
%"class.cvc5::context::CDO" = type <{ %"class.cvc5::context::ContextObj", i8, [7 x i8] }>
%"class.std::vector.79" = type { %"struct.std::_Vector_base.80" }
%"struct.std::_Vector_base.80" = type { %"struct.std::_Vector_base<cvc5::internal::theory::TheoryEngineModule *, std::allocator<cvc5::internal::theory::TheoryEngineModule *>>::_Vector_impl" }
%"struct.std::_Vector_base<cvc5::internal::theory::TheoryEngineModule *, std::allocator<cvc5::internal::theory::TheoryEngineModule *>>::_Vector_impl" = type { %"struct.std::_Vector_base<cvc5::internal::theory::TheoryEngineModule *, std::allocator<cvc5::internal::theory::TheoryEngineModule *>>::_Vector_impl_data" }
%"struct.std::_Vector_base<cvc5::internal::theory::TheoryEngineModule *, std::allocator<cvc5::internal::theory::TheoryEngineModule *>>::_Vector_impl_data" = type { ptr, ptr, ptr }

; Function Attrs: mustprogress nounwind uwtable
define linkonce_odr hidden noundef ptr @_ZNK4cvc58internal12TheoryEngine8theoryOfENS0_6theory8TheoryIdE(ptr noundef nonnull align 8 dereferenceable(1448) %this, i32 noundef %theoryId) #4 comdat align 2 {
entry:
  %this.addr = alloca ptr, align 8
  %theoryId.addr = alloca i32, align 4
  store ptr %this, ptr %this.addr, align 8
  store i32 %theoryId, ptr %theoryId.addr, align 4
  %this1 = load ptr, ptr %this.addr, align 8
  %d_theoryTable = getelementptr inbounds %"class.cvc5::internal::TheoryEngine", ptr %this1, i32 0, i32 2
  %0 = load i32, ptr %theoryId.addr, align 4
  %idxprom = zext i32 %0 to i64
  %arrayidx = getelementptr inbounds [14 x ptr], ptr %d_theoryTable, i64 0, i64 %idxprom
  %1 = load ptr, ptr %arrayidx, align 8
  ret ptr %1
}

; Function Attrs: mustprogress uwtable
define hidden noundef zeroext i1 @_ZNK4cvc58internal12TheoryEngine15isTheoryEnabledENS0_6theory8TheoryIdE(ptr noundef nonnull align 8 dereferenceable(1448) %this, i32 noundef %theoryId) #5 align 2 {
entry:
  %this.addr = alloca ptr, align 8
  %theoryId.addr = alloca i32, align 4
  store ptr %this, ptr %this.addr, align 8
  store i32 %theoryId, ptr %theoryId.addr, align 4
  %this1 = load ptr, ptr %this.addr, align 8
  %call = call noundef nonnull align 8 dereferenceable(88) ptr @_ZNK4cvc58internal6EnvObj9logicInfoEv(ptr noundef nonnull align 8 dereferenceable(16) %this1)
  %0 = load i32, ptr %theoryId.addr, align 4
  %call2 = call noundef zeroext i1 @_ZNK4cvc58internal9LogicInfo15isTheoryEnabledENS0_6theory8TheoryIdE(ptr noundef nonnull align 8 dereferenceable(88) %call, i32 noundef %0)
  ret i1 %call2
}

; Function Attrs: mustprogress uwtable
define hidden void @_ZN4cvc58internal12TheoryEngine9propagateENS0_6theory6Theory6EffortE(ptr noundef nonnull align 8 dereferenceable(1448) %this, i32 noundef %effort) #5 align 2 {
entry:
  %this.addr = alloca ptr, align 8
  %effort.addr = alloca i32, align 4
  store ptr %this, ptr %this.addr, align 8
  store i32 %effort, ptr %effort.addr, align 4
  %this1 = load ptr, ptr %this.addr, align 8
  %d_interrupted = getelementptr inbounds %"class.cvc5::internal::TheoryEngine", ptr %this1, i32 0, i32 29
  store i8 0, ptr %d_interrupted, align 8
  %d_interrupted2 = getelementptr inbounds %"class.cvc5::internal::TheoryEngine", ptr %this1, i32 0, i32 29
  store i8 0, ptr %d_interrupted2, align 8
  %call = call noundef zeroext i1 @_ZNK4cvc58internal12TheoryEngine15isTheoryEnabledENS0_6theory8TheoryIdE(ptr noundef nonnull align 8 dereferenceable(1448) %this1, i32 noundef 3)
  br i1 %call, label %if.then, label %if.end

if.then:                                          ; preds = %entry
  %call3 = call noundef ptr @_ZNK4cvc58internal12TheoryEngine8theoryOfENS0_6theory8TheoryIdE(ptr noundef nonnull align 8 dereferenceable(1448) %this1, i32 noundef 3)
  %0 = load i32, ptr %effort.addr, align 4
  %vtable = load ptr, ptr %call3, align 8
  %vfn = getelementptr inbounds ptr, ptr %vtable, i64 14
  %1 = load ptr, ptr %vfn, align 8
  call void %1(ptr noundef nonnull align 8 dereferenceable(408) %call3, i32 noundef %0)
  br label %if.end

if.end:                                           ; preds = %if.then, %entry
  %call4 = call noundef zeroext i1 @_ZNK4cvc58internal12TheoryEngine15isTheoryEnabledENS0_6theory8TheoryIdE(ptr noundef nonnull align 8 dereferenceable(1448) %this1, i32 noundef 4)
  br i1 %call4, label %if.then5, label %if.end9

if.then5:                                         ; preds = %if.end
  %call6 = call noundef ptr @_ZNK4cvc58internal12TheoryEngine8theoryOfENS0_6theory8TheoryIdE(ptr noundef nonnull align 8 dereferenceable(1448) %this1, i32 noundef 4)
  %2 = load i32, ptr %effort.addr, align 4
  %vtable7 = load ptr, ptr %call6, align 8
  %vfn8 = getelementptr inbounds ptr, ptr %vtable7, i64 14
  %3 = load ptr, ptr %vfn8, align 8
  call void %3(ptr noundef nonnull align 8 dereferenceable(408) %call6, i32 noundef %2)
  br label %if.end9

if.end9:                                          ; preds = %if.then5, %if.end
  ret void
}